; Function Attrs: nounwind uwtable
define noundef nonnull ptr @l_Array_anyMUnsafe_any___at_Lean_Meta_mkPackedPPRodInstance___spec__2___boxed(ptr noundef %0, ptr noundef %1, ptr noundef %2) local_unnamed_addr #0 {
  %4 = getelementptr i8, ptr %1, i64 8
  %.val15 = load i64, ptr %4, align 8, !tbaa !12
  %5 = ptrtoint ptr %1 to i64
  %6 = and i64 %5, 1
  %.not = icmp eq i64 %6, 0
  br i1 %.not, label %7, label %lean_dec.exit10

7:                                                ; preds = %3
  %8 = load i32, ptr %1, align 4, !tbaa !4
  %9 = icmp sgt i32 %8, 1
  br i1 %9, label %10, label %12, !prof !9

10:                                               ; preds = %7
  %11 = add nsw i32 %8, -1
  store i32 %11, ptr %1, align 4, !tbaa !4
  br label %lean_dec.exit10

12:                                               ; preds = %7
  %.not.i = icmp eq i32 %8, 0
  br i1 %.not.i, label %lean_dec.exit10, label %13

13:                                               ; preds = %12
  tail call void @lean_dec_ref_cold(ptr noundef nonnull %1) #4
  br label %lean_dec.exit10

lean_dec.exit10:                                  ; preds = %13, %12, %10, %3
  %14 = getelementptr i8, ptr %2, i64 8
  %.val = load i64, ptr %14, align 8, !tbaa !12
  %15 = ptrtoint ptr %2 to i64
  %16 = and i64 %15, 1
  %.not17 = icmp eq i64 %16, 0
  br i1 %.not17, label %17, label %lean_dec.exit9

17:                                               ; preds = %lean_dec.exit10
  %18 = load i32, ptr %2, align 4, !tbaa !4
  %19 = icmp sgt i32 %18, 1
  br i1 %19, label %20, label %22, !prof !9

20:                                               ; preds = %17
  %21 = add nsw i32 %18, -1
  store i32 %21, ptr %2, align 4, !tbaa !4
  br label %lean_dec.exit9

22:                                               ; preds = %17
  %.not.i11 = icmp eq i32 %18, 0
  br i1 %.not.i11, label %lean_dec.exit9, label %23

23:                                               ; preds = %22
  tail call void @lean_dec_ref_cold(ptr noundef nonnull %2) #4
  br label %lean_dec.exit9

lean_dec.exit9:                                   ; preds = %23, %22, %20, %lean_dec.exit10
  %.not27.i = icmp eq i64 %.val15, %.val
  br i1 %.not27.i, label %l_Array_anyMUnsafe_any___at_Lean_Meta_mkPackedPPRodInstance___spec__2.exit, label %.lr.ph.i

.lr.ph.i:                                         ; preds = %lean_dec.exit9
  %24 = getelementptr inbounds nuw i8, ptr %0, i64 24
  br label %27

25:                                               ; preds = %lean_dec.exit.i
  %26 = add i64 %.01528.i, 1
  %.not.i16 = icmp eq i64 %26, %.val
  br i1 %.not.i16, label %l_Array_anyMUnsafe_any___at_Lean_Meta_mkPackedPPRodInstance___spec__2.exit, label %27

27:                                               ; preds = %25, %.lr.ph.i
  %.01528.i = phi i64 [ %.val15, %.lr.ph.i ], [ %26, %25 ]
  %28 = getelementptr inbounds nuw [0 x ptr], ptr %24, i64 0, i64 %.01528.i
  %29 = load ptr, ptr %28, align 8, !tbaa !10
  %30 = ptrtoint ptr %29 to i64
  %31 = and i64 %30, 1
  %.not.i20.i = icmp eq i64 %31, 0
  br i1 %.not.i20.i, label %32, label %lean_array_uget.exit.i

32:                                               ; preds = %27
  %.val.i.i.i = load i32, ptr %29, align 4, !tbaa !4
  %33 = icmp sgt i32 %.val.i.i.i, 0
  br i1 %33, label %34, label %36, !prof !9

34:                                               ; preds = %32
  %35 = add nuw i32 %.val.i.i.i, 1
  store i32 %35, ptr %29, align 4, !tbaa !4
  br label %40

36:                                               ; preds = %32
  %.not.i.i.i = icmp eq i32 %.val.i.i.i, 0
  br i1 %.not.i.i.i, label %40, label %37

37:                                               ; preds = %36
  tail call void @lean_inc_ref_cold(ptr noundef nonnull %29) #4
  br label %40

lean_array_uget.exit.i:                           ; preds = %27
  %38 = load ptr, ptr @l_Lean_Meta_mkInstPiOfInstForall___closed__4, align 8, !tbaa !10
  %39 = tail call zeroext i8 @l_Lean_Expr_isAppOf(ptr noundef %29, ptr noundef %38) #4
  br label %lean_dec.exit.i

40:                                               ; preds = %37, %36, %34
  %41 = load ptr, ptr @l_Lean_Meta_mkInstPiOfInstForall___closed__4, align 8, !tbaa !10
  %42 = tail call zeroext i8 @l_Lean_Expr_isAppOf(ptr noundef nonnull %29, ptr noundef %41) #4
  %43 = load i32, ptr %29, align 4, !tbaa !4
  %44 = icmp sgt i32 %43, 1
  br i1 %44, label %45, label %47, !prof !9

45:                                               ; preds = %40
  %46 = add nsw i32 %43, -1
  store i32 %46, ptr %29, align 4, !tbaa !4
  br label %lean_dec.exit.i

47:                                               ; preds = %40
  %.not.i.i = icmp eq i32 %43, 0
  br i1 %.not.i.i, label %lean_dec.exit.i, label %48

48:                                               ; preds = %47
  tail call void @lean_dec_ref_cold(ptr noundef nonnull %29) #4
  br label %lean_dec.exit.i

lean_dec.exit.i:                                  ; preds = %48, %47, %45, %lean_array_uget.exit.i
  %49 = phi i8 [ %39, %lean_array_uget.exit.i ], [ %42, %45 ], [ %42, %47 ], [ %42, %48 ]
  %50 = icmp eq i8 %49, 0
  br i1 %50, label %l_Array_anyMUnsafe_any___at_Lean_Meta_mkPackedPPRodInstance___spec__2.exit, label %25

l_Array_anyMUnsafe_any___at_Lean_Meta_mkPackedPPRodInstance___spec__2.exit: ; preds = %25, %lean_dec.exit.i, %lean_dec.exit9
  %.2.ph.i = phi i64 [ 1, %lean_dec.exit9 ], [ 1, %25 ], [ 3, %lean_dec.exit.i ]
  %51 = ptrtoint ptr %0 to i64
  %52 = and i64 %51, 1
  %.not18 = icmp eq i64 %52, 0
  br i1 %.not18, label %53, label %lean_dec.exit

53:                                               ; preds = %l_Array_anyMUnsafe_any___at_Lean_Meta_mkPackedPPRodInstance___spec__2.exit
  %54 = load i32, ptr %0, align 4, !tbaa !4
  %55 = icmp sgt i32 %54, 1
  br i1 %55, label %56, label %58, !prof !9

56:                                               ; preds = %53
  %57 = add nsw i32 %54, -1
  store i32 %57, ptr %0, align 4, !tbaa !4
  br label %lean_dec.exit

58:                                               ; preds = %53
  %.not.i13 = icmp eq i32 %54, 0
  br i1 %.not.i13, label %lean_dec.exit, label %59

59:                                               ; preds = %58
  tail call void @lean_dec_ref_cold(ptr noundef nonnull %0) #4
  br label %lean_dec.exit

lean_dec.exit:                                    ; preds = %59, %58, %56, %l_Array_anyMUnsafe_any___at_Lean_Meta_mkPackedPPRodInstance___spec__2.exit
  %60 = inttoptr i64 %.2.ph.i to ptr
  ret ptr %60
}